target datalayout = "e-m:e-p270:32:32-p271:32:32-p272:64:64-i64:64-i128:128-f80:128-n8:16:32:64-S128"
target triple = "x86_64-pc-linux-gnu"

%struct.SDL_GUID = type { [16 x i8] }
%struct.SDL_VirtualJoystickDesc = type { i32, i16, i16, i16, i16, i16, i16, i16, i16, i16, i16, [2 x i16], i32, i32, ptr, ptr, ptr, ptr, ptr, ptr, ptr, ptr, ptr, ptr, ptr, ptr }
%struct.joystick_hwdata = type { i32, i8, ptr, i32, %struct.SDL_GUID, %struct.SDL_VirtualJoystickDesc, i32, ptr, ptr, ptr, ptr, ptr, ptr, i8, i32, i32, ptr, ptr, ptr }
%struct.SDL_Joystick = type { i32, ptr, ptr, ptr, %struct.SDL_GUID, i16, i64, i8, i8, i32, ptr, i32, ptr, i32, ptr, i32, ptr, i32, ptr, i32, i32, ptr, i16, i16, i64, i64, i16, i16, i64, i64, i8, i8, i8, i64, i8, i32, i32, i32, i8, i32, ptr, i32, ptr, [3 x [3 x float]], i64, ptr, ptr, i32, i32, ptr }
%struct.SDL_JoystickBallData = type { i32, i32 }

@.str.16 = private unnamed_addr constant [17 x i8] c"Invalid joystick\00", align 1
@.str.18 = private unnamed_addr constant [19 x i8] c"Invalid ball index\00", align 1

; Function Attrs: nounwind uwtable
define hidden zeroext i1 @SDL_SetJoystickVirtualBallInner(ptr noundef %0, i32 noundef %1, i16 noundef signext %2, i16 noundef signext %3) #0 {
  %5 = alloca i1, align 1
  %6 = alloca ptr, align 8
  %7 = alloca i32, align 4
  %8 = alloca i16, align 2
  %9 = alloca i16, align 2
  %10 = alloca ptr, align 8
  %11 = alloca i32, align 4
  store ptr %0, ptr %6, align 8
  store i32 %1, ptr %7, align 4
  store i16 %2, ptr %8, align 2
  store i16 %3, ptr %9, align 2
  call void @llvm.lifetime.start.p0(i64 8, ptr %10) #7
  call void @SDL_AssertJoysticksLocked()
  %12 = load ptr, ptr %6, align 8
  %13 = icmp ne ptr %12, null
  br i1 %13, label %14, label %19

14:                                               ; preds = %4
  %15 = load ptr, ptr %6, align 8
  %16 = getelementptr inbounds nuw %struct.SDL_Joystick, ptr %15, i32 0, i32 46
  %17 = load ptr, ptr %16, align 8
  %18 = icmp ne ptr %17, null
  br i1 %18, label %21, label %19

19:                                               ; preds = %14, %4
  %20 = call zeroext i1 (ptr, ...) @SDL_SetError_REAL(ptr noundef @.str.16)
  store i1 %20, ptr %5, align 1
  store i32 1, ptr %11, align 4
  br label %146

21:                                               ; preds = %14
  %22 = load ptr, ptr %6, align 8
  %23 = getelementptr inbounds nuw %struct.SDL_Joystick, ptr %22, i32 0, i32 46
  %24 = load ptr, ptr %23, align 8
  store ptr %24, ptr %10, align 8
  %25 = load i32, ptr %7, align 4
  %26 = icmp slt i32 %25, 0
  br i1 %26, label %35, label %27

27:                                               ; preds = %21
  %28 = load i32, ptr %7, align 4
  %29 = load ptr, ptr %10, align 8
  %30 = getelementptr inbounds nuw %struct.joystick_hwdata, ptr %29, i32 0, i32 5
  %31 = getelementptr inbounds nuw %struct.SDL_VirtualJoystickDesc, ptr %30, i32 0, i32 7
  %32 = load i16, ptr %31, align 8
  %33 = zext i16 %32 to i32
  %34 = icmp sge i32 %28, %33
  br i1 %34, label %35, label %37

35:                                               ; preds = %27, %21
  %36 = call zeroext i1 (ptr, ...) @SDL_SetError_REAL(ptr noundef @.str.18)
  store i1 %36, ptr %5, align 1
  store i32 1, ptr %11, align 4
  br label %146

37:                                               ; preds = %27
  %38 = load i16, ptr %8, align 2
  %39 = sext i16 %38 to i32
  %40 = load ptr, ptr %10, align 8
  %41 = getelementptr inbounds nuw %struct.joystick_hwdata, ptr %40, i32 0, i32 10
  %42 = load ptr, ptr %41, align 8
  %43 = load i32, ptr %7, align 4
  %44 = sext i32 %43 to i64
  %45 = getelementptr inbounds %struct.SDL_JoystickBallData, ptr %42, i64 %44
  %46 = getelementptr inbounds nuw %struct.SDL_JoystickBallData, ptr %45, i32 0, i32 0
  %47 = load i32, ptr %46, align 4
  %48 = add nsw i32 %47, %39
  store i32 %48, ptr %46, align 4
  %49 = load ptr, ptr %10, align 8
  %50 = getelementptr inbounds nuw %struct.joystick_hwdata, ptr %49, i32 0, i32 10
  %51 = load ptr, ptr %50, align 8
  %52 = load i32, ptr %7, align 4
  %53 = sext i32 %52 to i64
  %54 = getelementptr inbounds %struct.SDL_JoystickBallData, ptr %51, i64 %53
  %55 = getelementptr inbounds nuw %struct.SDL_JoystickBallData, ptr %54, i32 0, i32 0
  %56 = load i32, ptr %55, align 4
  %57 = icmp slt i32 %56, -32768
  br i1 %57, label %58, label %59

58:                                               ; preds = %37
  br label %81

59:                                               ; preds = %37
  %60 = load ptr, ptr %10, align 8
  %61 = getelementptr inbounds nuw %struct.joystick_hwdata, ptr %60, i32 0, i32 10
  %62 = load ptr, ptr %61, align 8
  %63 = load i32, ptr %7, align 4
  %64 = sext i32 %63 to i64
  %65 = getelementptr inbounds %struct.SDL_JoystickBallData, ptr %62, i64 %64
  %66 = getelementptr inbounds nuw %struct.SDL_JoystickBallData, ptr %65, i32 0, i32 0
  %67 = load i32, ptr %66, align 4
  %68 = icmp sgt i32 %67, 32767
  br i1 %68, label %69, label %70

69:                                               ; preds = %59
  br label %79

70:                                               ; preds = %59
  %71 = load ptr, ptr %10, align 8
  %72 = getelementptr inbounds nuw %struct.joystick_hwdata, ptr %71, i32 0, i32 10
  %73 = load ptr, ptr %72, align 8
  %74 = load i32, ptr %7, align 4
  %75 = sext i32 %74 to i64
  %76 = getelementptr inbounds %struct.SDL_JoystickBallData, ptr %73, i64 %75
  %77 = getelementptr inbounds nuw %struct.SDL_JoystickBallData, ptr %76, i32 0, i32 0
  %78 = load i32, ptr %77, align 4
  br label %79

79:                                               ; preds = %70, %69
  %80 = phi i32 [ 32767, %69 ], [ %78, %70 ]
  br label %81

81:                                               ; preds = %79, %58
  %82 = phi i32 [ -32768, %58 ], [ %80, %79 ]
  %83 = load ptr, ptr %10, align 8
  %84 = getelementptr inbounds nuw %struct.joystick_hwdata, ptr %83, i32 0, i32 10
  %85 = load ptr, ptr %84, align 8
  %86 = load i32, ptr %7, align 4
  %87 = sext i32 %86 to i64
  %88 = getelementptr inbounds %struct.SDL_JoystickBallData, ptr %85, i64 %87
  %89 = getelementptr inbounds nuw %struct.SDL_JoystickBallData, ptr %88, i32 0, i32 0
  store i32 %82, ptr %89, align 4
  %90 = load i16, ptr %9, align 2
  %91 = sext i16 %90 to i32
  %92 = load ptr, ptr %10, align 8
  %93 = getelementptr inbounds nuw %struct.joystick_hwdata, ptr %92, i32 0, i32 10
  %94 = load ptr, ptr %93, align 8
  %95 = load i32, ptr %7, align 4
  %96 = sext i32 %95 to i64
  %97 = getelementptr inbounds %struct.SDL_JoystickBallData, ptr %94, i64 %96
  %98 = getelementptr inbounds nuw %struct.SDL_JoystickBallData, ptr %97, i32 0, i32 1
  %99 = load i32, ptr %98, align 4
  %100 = add nsw i32 %99, %91
  store i32 %100, ptr %98, align 4
  %101 = load ptr, ptr %10, align 8
  %102 = getelementptr inbounds nuw %struct.joystick_hwdata, ptr %101, i32 0, i32 10
  %103 = load ptr, ptr %102, align 8
  %104 = load i32, ptr %7, align 4
  %105 = sext i32 %104 to i64
  %106 = getelementptr inbounds %struct.SDL_JoystickBallData, ptr %103, i64 %105
  %107 = getelementptr inbounds nuw %struct.SDL_JoystickBallData, ptr %106, i32 0, i32 1
  %108 = load i32, ptr %107, align 4
  %109 = icmp slt i32 %108, -32768
  br i1 %109, label %110, label %111

110:                                              ; preds = %81
  br label %133

111:                                              ; preds = %81
  %112 = load ptr, ptr %10, align 8
  %113 = getelementptr inbounds nuw %struct.joystick_hwdata, ptr %112, i32 0, i32 10
  %114 = load ptr, ptr %113, align 8
  %115 = load i32, ptr %7, align 4
  %116 = sext i32 %115 to i64
  %117 = getelementptr inbounds %struct.SDL_JoystickBallData, ptr %114, i64 %116
  %118 = getelementptr inbounds nuw %struct.SDL_JoystickBallData, ptr %117, i32 0, i32 1
  %119 = load i32, ptr %118, align 4
  %120 = icmp sgt i32 %119, 32767
  br i1 %120, label %121, label %122

121:                                              ; preds = %111
  br label %131

122:                                              ; preds = %111
  %123 = load ptr, ptr %10, align 8
  %124 = getelementptr inbounds nuw %struct.joystick_hwdata, ptr %123, i32 0, i32 10
  %125 = load ptr, ptr %124, align 8
  %126 = load i32, ptr %7, align 4
  %127 = sext i32 %126 to i64
  %128 = getelementptr inbounds %struct.SDL_JoystickBallData, ptr %125, i64 %127
  %129 = getelementptr inbounds nuw %struct.SDL_JoystickBallData, ptr %128, i32 0, i32 1
  %130 = load i32, ptr %129, align 4
  br label %131

131:                                              ; preds = %122, %121
  %132 = phi i32 [ 32767, %121 ], [ %130, %122 ]
  br label %133

133:                                              ; preds = %131, %110
  %134 = phi i32 [ -32768, %110 ], [ %132, %131 ]
  %135 = load ptr, ptr %10, align 8
  %136 = getelementptr inbounds nuw %struct.joystick_hwdata, ptr %135, i32 0, i32 10
  %137 = load ptr, ptr %136, align 8
  %138 = load i32, ptr %7, align 4
  %139 = sext i32 %138 to i64
  %140 = getelementptr inbounds %struct.SDL_JoystickBallData, ptr %137, i64 %139
  %141 = getelementptr inbounds nuw %struct.SDL_JoystickBallData, ptr %140, i32 0, i32 1
  store i32 %134, ptr %141, align 4
  %142 = load ptr, ptr %10, align 8
  %143 = getelementptr inbounds nuw %struct.joystick_hwdata, ptr %142, i32 0, i32 6
  %144 = load i32, ptr %143, align 8
  %145 = or i32 %144, 2
  store i32 %145, ptr %143, align 8
  store i1 true, ptr %5, align 1
  store i32 1, ptr %11, align 4
  br label %146

146:                                              ; preds = %133, %35, %19
  call void @llvm.lifetime.end.p0(i64 8, ptr %10) #7
  %147 = load i1, ptr %5, align 1
  ret i1 %147
}