; Function Attrs: nounwind uwtable
define hidden zeroext i1 @SDL_SetJoystickVirtualBallInner(ptr noundef readonly captures(address_is_null) %0, i32 noundef %1, i16 noundef signext %2, i16 noundef signext %3) local_unnamed_addr #0 {
  tail call void @SDL_AssertJoysticksLocked() #8
  %.not = icmp eq ptr %0, null
  br i1 %.not, label %8, label %5

5:                                                ; preds = %4
  %6 = getelementptr inbounds nuw i8, ptr %0, i64 328
  %7 = load ptr, ptr %6, align 8
  %.not34 = icmp eq ptr %7, null
  br i1 %.not34, label %8, label %10

8:                                                ; preds = %5, %4
  %9 = tail call zeroext i1 (ptr, ...) @SDL_SetError_REAL(ptr noundef nonnull @.str.16) #8
  br label %44

10:                                               ; preds = %5
  %11 = icmp slt i32 %1, 0
  br i1 %11, label %16, label %12

12:                                               ; preds = %10
  %13 = getelementptr inbounds nuw i8, ptr %7, i64 56
  %14 = load i16, ptr %13, align 8
  %15 = zext i16 %14 to i32
  %.not35 = icmp samesign ult i32 %1, %15
  br i1 %.not35, label %18, label %16

16:                                               ; preds = %12, %10
  %17 = tail call zeroext i1 (ptr, ...) @SDL_SetError_REAL(ptr noundef nonnull @.str.18) #8
  br label %44

18:                                               ; preds = %12
  %19 = sext i16 %2 to i32
  %20 = getelementptr inbounds nuw i8, ptr %7, i64 208
  %21 = load ptr, ptr %20, align 8
  %22 = zext nneg i32 %1 to i64
  %23 = getelementptr inbounds nuw %struct.SDL_JoystickBallData, ptr %21, i64 %22
  %24 = load i32, ptr %23, align 4
  %25 = add nsw i32 %24, %19
  store i32 %25, ptr %23, align 4
  %26 = load ptr, ptr %20, align 8
  %27 = getelementptr inbounds nuw %struct.SDL_JoystickBallData, ptr %26, i64 %22
  %28 = load i32, ptr %27, align 4
  %29 = tail call i32 @llvm.smax.i32(i32 %28, i32 -32768)
  %30 = tail call i32 @llvm.smin.i32(i32 %29, i32 32767)
  store i32 %30, ptr %27, align 4
  %31 = sext i16 %3 to i32
  %32 = load ptr, ptr %20, align 8
  %33 = getelementptr inbounds nuw %struct.SDL_JoystickBallData, ptr %32, i64 %22, i32 1
  %34 = load i32, ptr %33, align 4
  %35 = add nsw i32 %34, %31
  store i32 %35, ptr %33, align 4
  %36 = load ptr, ptr %20, align 8
  %37 = getelementptr inbounds nuw %struct.SDL_JoystickBallData, ptr %36, i64 %22, i32 1
  %38 = load i32, ptr %37, align 4
  %39 = tail call i32 @llvm.smax.i32(i32 %38, i32 -32768)
  %40 = tail call i32 @llvm.smin.i32(i32 %39, i32 32767)
  store i32 %40, ptr %37, align 4
  %41 = getelementptr inbounds nuw i8, ptr %7, i64 176
  %42 = load i32, ptr %41, align 8
  %43 = or i32 %42, 2
  store i32 %43, ptr %41, align 8
  br label %44

44:                                               ; preds = %18, %16, %8
  %.0 = phi i1 [ %17, %16 ], [ true, %18 ], [ %9, %8 ]
  ret i1 %.0
}